; Function Attrs: nounwind uwtable
define i32 @Cmd_RunAutoTunerEvalSimple(ptr noundef readonly captures(none) %0, ptr noundef %1) local_unnamed_addr #2 {
  %3 = getelementptr i8, ptr %0, i64 4
  %.val10 = load i32, ptr %3, align 4, !tbaa !14
  %4 = icmp sgt i32 %.val10, 0
  br i1 %4, label %.lr.ph, label %.critedge

.lr.ph:                                           ; preds = %2
  %5 = getelementptr i8, ptr %0, i64 8
  br label %6

6:                                                ; preds = %.lr.ph, %6
  %indvars.iv = phi i64 [ 0, %.lr.ph ], [ %indvars.iv.next, %6 ]
  %.012 = phi i32 [ 0, %.lr.ph ], [ %10, %6 ]
  %.val9 = load ptr, ptr %5, align 8, !tbaa !17
  %7 = getelementptr inbounds nuw ptr, ptr %.val9, i64 %indvars.iv
  %8 = load ptr, ptr %7, align 8, !tbaa !18
  %9 = tail call i32 @Gia_ManSatokoCallOne(ptr noundef %8, ptr noundef %1, i32 noundef -1) #22
  %10 = add nsw i32 %9, %.012
  %indvars.iv.next = add nuw nsw i64 %indvars.iv, 1
  %.val = load i32, ptr %3, align 4, !tbaa !14
  %11 = sext i32 %.val to i64
  %12 = icmp slt i64 %indvars.iv.next, %11
  br i1 %12, label %6, label %.critedge, !llvm.loop !19

.critedge:                                        ; preds = %6, %2
  %.0.lcssa = phi i32 [ 0, %2 ], [ %10, %6 ]
  ret i32 %.0.lcssa
}